target datalayout = "e-m:e-p270:32:32-p271:32:32-p272:64:64-i64:64-i128:128-f80:128-n8:16:32:64-S128"
target triple = "x86_64-pc-linux-gnu"

%"class.folly::Range" = type { ptr, ptr }
%"class.std::out_of_range" = type { %"class.std::logic_error" }
%"class.std::logic_error" = type { %"class.std::exception", %"struct.std::__cow_string" }
%"class.std::exception" = type { ptr }
%"struct.std::__cow_string" = type { %union.anon.1 }
%union.anon.1 = type { ptr }

@.str.1 = private unnamed_addr constant [19 x i8] c"index out of range\00", align 1
@_ZTISt12out_of_range = external constant ptr
@_ZTVSt12out_of_range = available_externally unnamed_addr constant { [5 x ptr] } { [5 x ptr] [ptr null, ptr @_ZTISt12out_of_range, ptr @_ZNSt12out_of_rangeD1Ev, ptr @_ZNSt12out_of_rangeD0Ev, ptr @_ZNKSt11logic_error4whatEv] }, align 8

; Function Attrs: mustprogress nounwind uwtable
define linkonce_odr void @_ZNSt12out_of_rangeC2EOS_(ptr noundef nonnull align 8 dereferenceable(16) %0, ptr noundef nonnull align 8 dereferenceable(16) %1) unnamed_addr #0 comdat align 2 {
  %3 = alloca ptr, align 8
  %4 = alloca ptr, align 8
  store ptr %0, ptr %3, align 8, !tbaa !61
  store ptr %1, ptr %4, align 8, !tbaa !61
  %5 = load ptr, ptr %3, align 8
  %6 = load ptr, ptr %4, align 8, !tbaa !61
  call void @_ZNSt11logic_errorC2EOS_(ptr noundef nonnull align 8 dereferenceable(16) %5, ptr noundef nonnull align 8 dereferenceable(16) %6) #18
  store ptr getelementptr inbounds inrange(-16, 24) ({ [5 x ptr] }, ptr @_ZTVSt12out_of_range, i32 0, i32 0, i32 2), ptr %5, align 8, !tbaa !63
  ret void
}

; Function Attrs: cold mustprogress noinline noreturn optsize uwtable
define linkonce_odr void @_ZN5folly15throw_exceptionISt12out_of_rangeEEvOT_(ptr noundef nonnull align 8 dereferenceable(16) %0) #17 comdat {
  %2 = alloca ptr, align 8
  store ptr %0, ptr %2, align 8, !tbaa !61
  %3 = call ptr @__cxa_allocate_exception(i64 16) #18
  %4 = load ptr, ptr %2, align 8, !tbaa !61
  call void @_ZNSt12out_of_rangeC2EOS_(ptr noundef nonnull align 8 dereferenceable(16) %3, ptr noundef nonnull align 8 dereferenceable(16) %4) #18
  call void @__cxa_throw(ptr %3, ptr @_ZTISt12out_of_range, ptr @_ZNSt12out_of_rangeD1Ev) #21
  unreachable
}

; Function Attrs: cold mustprogress noinline noreturn optsize uwtable
define linkonce_odr void @_ZN5folly6detail16throw_exception_ISt12out_of_rangeJPKcEEEvDpT0_(ptr noundef %0) #17 comdat personality ptr @__gxx_personality_v0 {
  %2 = alloca ptr, align 8
  %3 = alloca %"class.std::out_of_range", align 8
  %4 = alloca ptr, align 8
  %5 = alloca i32, align 4
  store ptr %0, ptr %2, align 8, !tbaa !27
  call void @llvm.lifetime.start.p0(i64 16, ptr %3) #18
  %6 = load ptr, ptr %2, align 8, !tbaa !27
  call void @_ZNSt12out_of_rangeC1EPKc(ptr noundef nonnull align 8 dereferenceable(16) %3, ptr noundef %6)
  invoke void @_ZN5folly15throw_exceptionISt12out_of_rangeEEvOT_(ptr noundef nonnull align 8 dereferenceable(16) %3) #23
          to label %7 unwind label %8

7:                                                ; preds = %1
  unreachable

8:                                                ; preds = %1
  %9 = landingpad { ptr, i32 }
          cleanup
  %10 = extractvalue { ptr, i32 } %9, 0
  store ptr %10, ptr %4, align 8
  %11 = extractvalue { ptr, i32 } %9, 1
  store i32 %11, ptr %5, align 4
  call void @_ZNSt12out_of_rangeD1Ev(ptr noundef nonnull align 8 dereferenceable(16) %3) #18
  call void @llvm.lifetime.end.p0(i64 16, ptr %3) #18
  br label %12

12:                                               ; preds = %8
  %13 = load ptr, ptr %4, align 8
  %14 = load i32, ptr %5, align 4
  %15 = insertvalue { ptr, i32 } poison, ptr %13, 0
  %16 = insertvalue { ptr, i32 } %15, i32 %14, 1
  resume { ptr, i32 } %16
}

; Function Attrs: mustprogress nounwind uwtable
define linkonce_odr void @_ZN5folly5RangeIPKcEC2ES2_m(ptr noundef nonnull align 8 dereferenceable(16) %0, ptr noundef %1, i64 noundef %2) unnamed_addr #0 comdat align 2 {
  %4 = alloca ptr, align 8
  %5 = alloca ptr, align 8
  %6 = alloca i64, align 8
  store ptr %0, ptr %4, align 8, !tbaa !54
  store ptr %1, ptr %5, align 8, !tbaa !27
  store i64 %2, ptr %6, align 8, !tbaa !8
  %7 = load ptr, ptr %4, align 8
  %8 = getelementptr inbounds nuw %"class.folly::Range", ptr %7, i32 0, i32 0
  %9 = load ptr, ptr %5, align 8, !tbaa !27
  store ptr %9, ptr %8, align 8, !tbaa !56
  %10 = getelementptr inbounds nuw %"class.folly::Range", ptr %7, i32 0, i32 1
  %11 = load ptr, ptr %5, align 8, !tbaa !27
  %12 = load i64, ptr %6, align 8, !tbaa !8
  %13 = getelementptr inbounds nuw i8, ptr %11, i64 %12
  store ptr %13, ptr %10, align 8, !tbaa !58
  ret void
}

; Function Attrs: inlinehint mustprogress nounwind uwtable
define linkonce_odr noundef nonnull align 8 dereferenceable(8) ptr @_ZSt3minImERKT_S2_S2_(ptr noundef nonnull align 8 dereferenceable(8) %0, ptr noundef nonnull align 8 dereferenceable(8) %1) #2 comdat {
  %3 = alloca ptr, align 8
  %4 = alloca ptr, align 8
  %5 = alloca ptr, align 8
  store ptr %0, ptr %4, align 8, !tbaa !59
  store ptr %1, ptr %5, align 8, !tbaa !59
  %6 = load ptr, ptr %5, align 8, !tbaa !59
  %7 = load i64, ptr %6, align 8, !tbaa !8
  %8 = load ptr, ptr %4, align 8, !tbaa !59
  %9 = load i64, ptr %8, align 8, !tbaa !8
  %10 = icmp ult i64 %7, %9
  br i1 %10, label %11, label %13

11:                                               ; preds = %2
  %12 = load ptr, ptr %5, align 8, !tbaa !59
  store ptr %12, ptr %3, align 8
  br label %15

13:                                               ; preds = %2
  %14 = load ptr, ptr %4, align 8, !tbaa !59
  store ptr %14, ptr %3, align 8
  br label %15

15:                                               ; preds = %13, %11
  %16 = load ptr, ptr %3, align 8
  ret ptr %16
}

; Function Attrs: alwaysinline mustprogress noreturn uwtable
define linkonce_odr hidden void @_ZN5folly15throw_exceptionISt12out_of_rangeJRA19_KcEEEvDpOT0_(ptr noundef nonnull align 1 dereferenceable(19) %0) #16 comdat {
  %2 = alloca ptr, align 8
  store ptr %0, ptr %2, align 8, !tbaa !27
  %3 = load ptr, ptr %2, align 8, !tbaa !27
  %4 = getelementptr inbounds [19 x i8], ptr %3, i64 0, i64 0
  call void @_ZN5folly6detail16throw_exception_ISt12out_of_rangeJPKcEEEvDpT0_(ptr noundef %4) #23
  unreachable
}

; Function Attrs: mustprogress nounwind uwtable
define linkonce_odr noundef i64 @_ZNK5folly5RangeIPKcE4sizeEv(ptr noundef nonnull align 8 dereferenceable(16) %0) #0 comdat align 2 {
  %2 = alloca ptr, align 8
  store ptr %0, ptr %2, align 8, !tbaa !54
  %3 = load ptr, ptr %2, align 8
  %4 = getelementptr inbounds nuw %"class.folly::Range", ptr %3, i32 0, i32 1
  %5 = load ptr, ptr %4, align 8, !tbaa !58
  %6 = getelementptr inbounds nuw %"class.folly::Range", ptr %3, i32 0, i32 0
  %7 = load ptr, ptr %6, align 8, !tbaa !56
  %8 = ptrtoint ptr %5 to i64
  %9 = ptrtoint ptr %7 to i64
  %10 = sub i64 %8, %9
  ret i64 %10
}

; Function Attrs: mustprogress nounwind uwtable
define linkonce_odr noundef ptr @_ZNK5folly5RangeIPKcE4dataEv(ptr noundef nonnull align 8 dereferenceable(16) %0) #0 comdat align 2 {
  %2 = alloca ptr, align 8
  store ptr %0, ptr %2, align 8, !tbaa !54
  %3 = load ptr, ptr %2, align 8
  %4 = getelementptr inbounds nuw %"class.folly::Range", ptr %3, i32 0, i32 0
  %5 = load ptr, ptr %4, align 8, !tbaa !56
  ret ptr %5
}

; Function Attrs: mustprogress uwtable
define linkonce_odr { ptr, ptr } @_ZNK5folly5RangeIPKcE8subpieceEmm(ptr noundef nonnull align 8 dereferenceable(16) %0, i64 noundef %1, i64 noundef %2) #1 comdat align 2 {
  %4 = alloca %"class.folly::Range", align 8
  %5 = alloca ptr, align 8
  %6 = alloca i64, align 8
  %7 = alloca i64, align 8
  %8 = alloca i64, align 8
  store ptr %0, ptr %5, align 8, !tbaa !54
  store i64 %1, ptr %6, align 8, !tbaa !8
  store i64 %2, ptr %7, align 8, !tbaa !8
  %9 = load ptr, ptr %5, align 8
  %10 = load i64, ptr %6, align 8, !tbaa !8
  %11 = call noundef i64 @_ZNK5folly5RangeIPKcE4sizeEv(ptr noundef nonnull align 8 dereferenceable(16) %9)
  %12 = icmp ugt i64 %10, %11
  %13 = zext i1 %12 to i64
  %14 = call i64 @llvm.expect.i64(i64 %13, i64 0)
  %15 = icmp ne i64 %14, 0
  br i1 %15, label %16, label %17

16:                                               ; preds = %3
  call void @_ZN5folly15throw_exceptionISt12out_of_rangeJRA19_KcEEEvDpOT0_(ptr noundef nonnull align 1 dereferenceable(19) @.str.1) #21
  unreachable

17:                                               ; preds = %3
  %18 = getelementptr inbounds nuw %"class.folly::Range", ptr %9, i32 0, i32 0
  %19 = load ptr, ptr %18, align 8, !tbaa !56
  %20 = load i64, ptr %6, align 8, !tbaa !8
  %21 = getelementptr inbounds nuw i8, ptr %19, i64 %20
  call void @llvm.lifetime.start.p0(i64 8, ptr %8) #18
  %22 = call noundef i64 @_ZNK5folly5RangeIPKcE4sizeEv(ptr noundef nonnull align 8 dereferenceable(16) %9)
  %23 = load i64, ptr %6, align 8, !tbaa !8
  %24 = sub i64 %22, %23
  store i64 %24, ptr %8, align 8, !tbaa !8
  %25 = call noundef nonnull align 8 dereferenceable(8) ptr @_ZSt3minImERKT_S2_S2_(ptr noundef nonnull align 8 dereferenceable(8) %7, ptr noundef nonnull align 8 dereferenceable(8) %8)
  %26 = load i64, ptr %25, align 8, !tbaa !8
  call void @_ZN5folly5RangeIPKcEC2ES2_m(ptr noundef nonnull align 8 dereferenceable(16) %4, ptr noundef %21, i64 noundef %26)
  call void @llvm.lifetime.end.p0(i64 8, ptr %8) #18
  %27 = load { ptr, ptr }, ptr %4, align 8
  ret { ptr, ptr } %27
}

; Function Attrs: mustprogress uwtable
define noundef zeroext i1 @_ZN5folly13setThreadNameEmNS_5RangeIPKcEE(i64 noundef %0, ptr %1, ptr %2) #1 {
  %4 = alloca %"class.folly::Range", align 8
  %5 = alloca i64, align 8
  %6 = alloca %"class.folly::Range", align 8
  %7 = alloca [16 x i8], align 16
  %8 = getelementptr inbounds nuw { ptr, ptr }, ptr %4, i32 0, i32 0
  store ptr %1, ptr %8, align 8
  %9 = getelementptr inbounds nuw { ptr, ptr }, ptr %4, i32 0, i32 1
  store ptr %2, ptr %9, align 8
  store i64 %0, ptr %5, align 8, !tbaa !8
  call void @llvm.lifetime.start.p0(i64 16, ptr %6) #18
  %10 = call { ptr, ptr } @_ZNK5folly5RangeIPKcE8subpieceEmm(ptr noundef nonnull align 8 dereferenceable(16) %4, i64 noundef 0, i64 noundef 15)
  %11 = getelementptr inbounds nuw { ptr, ptr }, ptr %6, i32 0, i32 0
  %12 = extractvalue { ptr, ptr } %10, 0
  store ptr %12, ptr %11, align 8
  %13 = getelementptr inbounds nuw { ptr, ptr }, ptr %6, i32 0, i32 1
  %14 = extractvalue { ptr, ptr } %10, 1
  store ptr %14, ptr %13, align 8
  call void @llvm.memcpy.p0.p0.i64(ptr align 8 %4, ptr align 8 %6, i64 16, i1 false), !tbaa.struct !53
  call void @llvm.lifetime.end.p0(i64 16, ptr %6) #18
  call void @llvm.lifetime.start.p0(i64 16, ptr %7) #18
  call void @llvm.memset.p0.i64(ptr align 16 %7, i8 0, i64 16, i1 false)
  %15 = getelementptr inbounds [16 x i8], ptr %7, i64 0, i64 0
  %16 = call noundef ptr @_ZNK5folly5RangeIPKcE4dataEv(ptr noundef nonnull align 8 dereferenceable(16) %4)
  %17 = call noundef i64 @_ZNK5folly5RangeIPKcE4sizeEv(ptr noundef nonnull align 8 dereferenceable(16) %4)
  call void @llvm.memcpy.p0.p0.i64(ptr align 16 %15, ptr align 1 %16, i64 %17, i1 false)
  %18 = load i64, ptr %5, align 8, !tbaa !8
  %19 = getelementptr inbounds [16 x i8], ptr %7, i64 0, i64 0
  %20 = call i32 @pthread_setname_np(i64 noundef %18, ptr noundef %19) #18
  %21 = icmp eq i32 0, %20
  call void @llvm.lifetime.end.p0(i64 16, ptr %7) #18
  ret i1 %21
}